; ModuleID = '50/242.c'
source_filename = "50/242.c"
target datalayout = "e-m:e-p270:32:32-p271:32:32-p272:64:64-i64:64-f80:128-n8:16:32:64-S128"
target triple = "x86_64-pc-linux-gnu"

@__const.main.c = private unnamed_addr constant [12 x i32] [i32 31, i32 28, i32 31, i32 30, i32 31, i32 30, i32 31, i32 31, i32 30, i32 31, i32 30, i32 31], align 16
@.str = private unnamed_addr constant [3 x i8] c"%d\00", align 1
@.str.1 = private unnamed_addr constant [4 x i8] c"%d\0A\00", align 1

; Function Attrs: noinline nounwind uwtable
define dso_local void @main() #0 {
  %1 = alloca i32, align 4
  %2 = alloca [365 x i32], align 16
  %3 = alloca [365 x i32], align 16
  %4 = alloca [12 x i32], align 16
  %5 = alloca i32, align 4
  %6 = alloca i32, align 4
  %7 = alloca i32, align 4
  %8 = bitcast [12 x i32]* %4 to i8*
  call void @llvm.memcpy.p0i8.p0i8.i64(i8* align 16 %8, i8* align 16 bitcast ([12 x i32]* @__const.main.c to i8*), i64 48, i1 false)
  %9 = call i32 (i8*, ...) @__isoc99_scanf(i8* getelementptr inbounds ([3 x i8], [3 x i8]* @.str, i64 0, i64 0), i32* %1)
  store i32 0, i32* %5, align 4
  br label %10

10:                                               ; preds = %21, %0
  %11 = load i32, i32* %5, align 4
  %12 = icmp slt i32 %11, 365
  br i1 %12, label %13, label %24

13:                                               ; preds = %10
  %14 = load i32, i32* %1, align 4
  %15 = load i32, i32* %5, align 4
  %16 = add nsw i32 %14, %15
  %17 = srem i32 %16, 7
  %18 = load i32, i32* %5, align 4
  %19 = sext i32 %18 to i64
  %20 = getelementptr inbounds [365 x i32], [365 x i32]* %2, i64 0, i64 %19
  store i32 %17, i32* %20, align 4
  br label %21

21:                                               ; preds = %13
  %22 = load i32, i32* %5, align 4
  %23 = add nsw i32 %22, 1
  store i32 %23, i32* %5, align 4
  br label %10

24:                                               ; preds = %10
  store i32 0, i32* %5, align 4
  br label %25

25:                                               ; preds = %32, %24
  %26 = load i32, i32* %5, align 4
  %27 = icmp slt i32 %26, 365
  br i1 %27, label %28, label %35

28:                                               ; preds = %25
  %29 = load i32, i32* %5, align 4
  %30 = sext i32 %29 to i64
  %31 = getelementptr inbounds [365 x i32], [365 x i32]* %3, i64 0, i64 %30
  store i32 0, i32* %31, align 4
  br label %32

32:                                               ; preds = %28
  %33 = load i32, i32* %5, align 4
  %34 = add nsw i32 %33, 1
  store i32 %34, i32* %5, align 4
  br label %25

35:                                               ; preds = %25
  %36 = getelementptr inbounds [365 x i32], [365 x i32]* %3, i64 0, i64 12
  store i32 1, i32* %36, align 16
  store i32 0, i32* %5, align 4
  store i32 12, i32* %7, align 4
  br label %37

37:                                               ; preds = %50, %35
  %38 = load i32, i32* %5, align 4
  %39 = icmp slt i32 %38, 12
  br i1 %39, label %40, label %53

40:                                               ; preds = %37
  %41 = load i32, i32* %7, align 4
  %42 = load i32, i32* %5, align 4
  %43 = sext i32 %42 to i64
  %44 = getelementptr inbounds [12 x i32], [12 x i32]* %4, i64 0, i64 %43
  %45 = load i32, i32* %44, align 4
  %46 = add nsw i32 %41, %45
  store i32 %46, i32* %7, align 4
  %47 = load i32, i32* %7, align 4
  %48 = sext i32 %47 to i64
  %49 = getelementptr inbounds [365 x i32], [365 x i32]* %3, i64 0, i64 %48
  store i32 1, i32* %49, align 4
  br label %50

50:                                               ; preds = %40
  %51 = load i32, i32* %5, align 4
  %52 = add nsw i32 %51, 1
  store i32 %52, i32* %5, align 4
  br label %37

53:                                               ; preds = %37
  store i32 0, i32* %5, align 4
  br label %54

54:                                               ; preds = %75, %53
  %55 = load i32, i32* %5, align 4
  %56 = icmp slt i32 %55, 365
  br i1 %56, label %57, label %78

57:                                               ; preds = %54
  %58 = load i32, i32* %5, align 4
  %59 = sext i32 %58 to i64
  %60 = getelementptr inbounds [365 x i32], [365 x i32]* %2, i64 0, i64 %59
  %61 = load i32, i32* %60, align 4
  %62 = icmp eq i32 %61, 5
  br i1 %62, label %63, label %74

63:                                               ; preds = %57
  %64 = load i32, i32* %5, align 4
  %65 = sext i32 %64 to i64
  %66 = getelementptr inbounds [365 x i32], [365 x i32]* %3, i64 0, i64 %65
  %67 = load i32, i32* %66, align 4
  %68 = icmp eq i32 %67, 1
  br i1 %68, label %69, label %74

69:                                               ; preds = %63
  %70 = load i32, i32* %5, align 4
  %71 = sdiv i32 %70, 31
  %72 = add nsw i32 %71, 1
  %73 = call i32 (i8*, ...) @printf(i8* getelementptr inbounds ([4 x i8], [4 x i8]* @.str.1, i64 0, i64 0), i32 %72)
  br label %74

74:                                               ; preds = %69, %63, %57
  br label %75

75:                                               ; preds = %74
  %76 = load i32, i32* %5, align 4
  %77 = add nsw i32 %76, 1
  store i32 %77, i32* %5, align 4
  br label %54

78:                                               ; preds = %54
  ret void
}

; Function Attrs: argmemonly nounwind willreturn
declare void @llvm.memcpy.p0i8.p0i8.i64(i8* noalias nocapture writeonly, i8* noalias nocapture readonly, i64, i1 immarg) #1

declare dso_local i32 @__isoc99_scanf(i8*, ...) #2

declare dso_local i32 @printf(i8*, ...) #2


!llvm.module.flags = !{!0}
!llvm.ident = !{!1}

!0 = !{i32 1, !"wchar_size", i32 4}
!1 = !{!"clang version 10.0.0-4ubuntu1 "}
